target datalayout = "e-m:e-p270:32:32-p271:32:32-p272:64:64-i64:64-i128:128-f80:128-n8:16:32:64-S128"
target triple = "x86_64-pc-linux-gnu"

%struct.FT_GlyphRec_ = type { ptr, ptr, i32, %struct.FT_Vector_ }
%struct.FT_Vector_ = type { i64, i64 }
%struct.FT_LibraryRec_ = type { ptr, i32, i32, i32, i32, [32 x ptr], %struct.FT_ListRec_, ptr, ptr, [4 x ptr], [3 x %struct.FT_Vector_], i32 }
%struct.FT_ListRec_ = type { ptr, ptr }
%struct.FT_Glyph_Class_ = type { i64, i32, ptr, ptr, ptr, ptr, ptr, ptr }
%struct.FT_RendererRec_ = type { %struct.FT_ModuleRec_, ptr, i32, %struct.FT_Glyph_Class_, ptr, ptr, ptr }
%struct.FT_ModuleRec_ = type { ptr, ptr, ptr }

@ft_bitmap_glyph_class = hidden constant { i64, i32, [4 x i8], ptr, ptr, ptr, ptr, ptr, ptr } { i64 88, i32 1651078259, [4 x i8] zeroinitializer, ptr @ft_bitmap_glyph_init, ptr @ft_bitmap_glyph_done, ptr @ft_bitmap_glyph_copy, ptr null, ptr @ft_bitmap_glyph_bbox, ptr null }, align 8
@ft_svg_glyph_class = hidden constant { i64, i32, [4 x i8], ptr, ptr, ptr, ptr, ptr, ptr } { i64 176, i32 1398163232, [4 x i8] zeroinitializer, ptr @ft_svg_glyph_init, ptr @ft_svg_glyph_done, ptr @ft_svg_glyph_copy, ptr @ft_svg_glyph_transform, ptr null, ptr @ft_svg_glyph_prepare }, align 8

; Function Attrs: nounwind uwtable
define internal i32 @ft_new_glyph(ptr noundef %0, ptr noundef %1, ptr noundef %2) #0 {
  %4 = alloca ptr, align 8
  %5 = alloca ptr, align 8
  %6 = alloca ptr, align 8
  %7 = alloca ptr, align 8
  %8 = alloca i32, align 4
  %9 = alloca ptr, align 8
  store ptr %0, ptr %4, align 8, !tbaa !20
  store ptr %1, ptr %5, align 8, !tbaa !117
  store ptr %2, ptr %6, align 8, !tbaa !114
  call void @llvm.lifetime.start.p0(i64 8, ptr %7) #6
  %10 = load ptr, ptr %4, align 8, !tbaa !20
  %11 = getelementptr inbounds nuw %struct.FT_LibraryRec_, ptr %10, i32 0, i32 0
  %12 = load ptr, ptr %11, align 8, !tbaa !77
  store ptr %12, ptr %7, align 8, !tbaa !84
  call void @llvm.lifetime.start.p0(i64 4, ptr %8) #6
  call void @llvm.lifetime.start.p0(i64 8, ptr %9) #6
  store ptr null, ptr %9, align 8, !tbaa !3
  %13 = load ptr, ptr %6, align 8, !tbaa !114
  store ptr null, ptr %13, align 8, !tbaa !3
  %14 = load ptr, ptr %7, align 8, !tbaa !84
  %15 = load ptr, ptr %5, align 8, !tbaa !117
  %16 = getelementptr inbounds nuw %struct.FT_Glyph_Class_, ptr %15, i32 0, i32 0
  %17 = load i64, ptr %16, align 8, !tbaa !120
  %18 = call ptr @ft_mem_alloc(ptr noundef %14, i64 noundef %17, ptr noundef %8)
  store ptr %18, ptr %9, align 8, !tbaa !3
  %19 = load i32, ptr %8, align 4, !tbaa !12
  %20 = icmp ne i32 %19, 0
  br i1 %20, label %35, label %21

21:                                               ; preds = %3
  %22 = load ptr, ptr %4, align 8, !tbaa !20
  %23 = load ptr, ptr %9, align 8, !tbaa !3
  %24 = getelementptr inbounds nuw %struct.FT_GlyphRec_, ptr %23, i32 0, i32 0
  store ptr %22, ptr %24, align 8, !tbaa !14
  %25 = load ptr, ptr %5, align 8, !tbaa !117
  %26 = load ptr, ptr %9, align 8, !tbaa !3
  %27 = getelementptr inbounds nuw %struct.FT_GlyphRec_, ptr %26, i32 0, i32 1
  store ptr %25, ptr %27, align 8, !tbaa !116
  %28 = load ptr, ptr %5, align 8, !tbaa !117
  %29 = getelementptr inbounds nuw %struct.FT_Glyph_Class_, ptr %28, i32 0, i32 1
  %30 = load i32, ptr %29, align 8, !tbaa !121
  %31 = load ptr, ptr %9, align 8, !tbaa !3
  %32 = getelementptr inbounds nuw %struct.FT_GlyphRec_, ptr %31, i32 0, i32 2
  store i32 %30, ptr %32, align 8, !tbaa !107
  %33 = load ptr, ptr %9, align 8, !tbaa !3
  %34 = load ptr, ptr %6, align 8, !tbaa !114
  store ptr %33, ptr %34, align 8, !tbaa !3
  br label %35

35:                                               ; preds = %21, %3
  %36 = load i32, ptr %8, align 4, !tbaa !12
  call void @llvm.lifetime.end.p0(i64 8, ptr %9) #6
  call void @llvm.lifetime.end.p0(i64 4, ptr %8) #6
  call void @llvm.lifetime.end.p0(i64 8, ptr %7) #6
  ret i32 %36
}

; Function Attrs: nounwind uwtable
define i32 @FT_New_Glyph(ptr noundef %0, i32 noundef %1, ptr noundef %2) #0 {
  %4 = alloca i32, align 4
  %5 = alloca ptr, align 8
  %6 = alloca i32, align 4
  %7 = alloca ptr, align 8
  %8 = alloca ptr, align 8
  %9 = alloca i32, align 4
  %10 = alloca ptr, align 8
  store ptr %0, ptr %5, align 8, !tbaa !20
  store i32 %1, ptr %6, align 4, !tbaa !12
  store ptr %2, ptr %7, align 8, !tbaa !114
  call void @llvm.lifetime.start.p0(i64 8, ptr %8) #6
  store ptr null, ptr %8, align 8, !tbaa !117
  %11 = load ptr, ptr %5, align 8, !tbaa !20
  %12 = icmp ne ptr %11, null
  br i1 %12, label %13, label %16

13:                                               ; preds = %3
  %14 = load ptr, ptr %7, align 8, !tbaa !114
  %15 = icmp ne ptr %14, null
  br i1 %15, label %17, label %16

16:                                               ; preds = %13, %3
  store i32 6, ptr %4, align 4
  store i32 1, ptr %9, align 4
  br label %50

17:                                               ; preds = %13
  %18 = load i32, ptr %6, align 4, !tbaa !12
  %19 = icmp eq i32 %18, 1651078259
  br i1 %19, label %20, label %21

20:                                               ; preds = %17
  store ptr @ft_bitmap_glyph_class, ptr %8, align 8, !tbaa !117
  br label %41

21:                                               ; preds = %17
  %22 = load i32, ptr %6, align 4, !tbaa !12
  %23 = icmp eq i32 %22, 1869968492
  br i1 %23, label %24, label %25

24:                                               ; preds = %21
  store ptr @ft_outline_glyph_class, ptr %8, align 8, !tbaa !117
  br label %40

25:                                               ; preds = %21
  %26 = load i32, ptr %6, align 4, !tbaa !12
  %27 = icmp eq i32 %26, 1398163232
  br i1 %27, label %28, label %29

28:                                               ; preds = %25
  store ptr @ft_svg_glyph_class, ptr %8, align 8, !tbaa !117
  br label %39

29:                                               ; preds = %25
  call void @llvm.lifetime.start.p0(i64 8, ptr %10) #6
  %30 = load ptr, ptr %5, align 8, !tbaa !20
  %31 = load i32, ptr %6, align 4, !tbaa !12
  %32 = call ptr @FT_Lookup_Renderer(ptr noundef %30, i32 noundef %31, ptr noundef null)
  store ptr %32, ptr %10, align 8, !tbaa !123
  %33 = load ptr, ptr %10, align 8, !tbaa !123
  %34 = icmp ne ptr %33, null
  br i1 %34, label %35, label %38

35:                                               ; preds = %29
  %36 = load ptr, ptr %10, align 8, !tbaa !123
  %37 = getelementptr inbounds nuw %struct.FT_RendererRec_, ptr %36, i32 0, i32 3
  store ptr %37, ptr %8, align 8, !tbaa !117
  br label %38

38:                                               ; preds = %35, %29
  call void @llvm.lifetime.end.p0(i64 8, ptr %10) #6
  br label %39

39:                                               ; preds = %38, %28
  br label %40

40:                                               ; preds = %39, %24
  br label %41

41:                                               ; preds = %40, %20
  %42 = load ptr, ptr %8, align 8, !tbaa !117
  %43 = icmp ne ptr %42, null
  br i1 %43, label %45, label %44

44:                                               ; preds = %41
  store i32 18, ptr %4, align 4
  store i32 1, ptr %9, align 4
  br label %50

45:                                               ; preds = %41
  %46 = load ptr, ptr %5, align 8, !tbaa !20
  %47 = load ptr, ptr %8, align 8, !tbaa !117
  %48 = load ptr, ptr %7, align 8, !tbaa !114
  %49 = call i32 @ft_new_glyph(ptr noundef %46, ptr noundef %47, ptr noundef %48)
  store i32 %49, ptr %4, align 4
  store i32 1, ptr %9, align 4
  br label %50

50:                                               ; preds = %45, %44, %16
  call void @llvm.lifetime.end.p0(i64 8, ptr %8) #6
  %51 = load i32, ptr %4, align 4
  ret i32 %51
}