; Function Attrs: nounwind uwtable
define i32 @FT_New_Glyph(ptr noundef %0, i32 noundef %1, ptr noundef writeonly %2) local_unnamed_addr #0 {
  %4 = alloca i32, align 4
  %5 = icmp ne ptr %0, null
  %6 = icmp ne ptr %2, null
  %or.cond = and i1 %5, %6
  br i1 %or.cond, label %7, label %23

7:                                                ; preds = %3
  switch i32 %1, label %10 [
    i32 1651078259, label %13
    i32 1869968492, label %8
    i32 1398163232, label %9
  ]

8:                                                ; preds = %7
  br label %13

9:                                                ; preds = %7
  br label %13

10:                                               ; preds = %7
  %11 = tail call ptr @FT_Lookup_Renderer(ptr noundef nonnull %0, i32 noundef %1, ptr noundef null) #6
  %.not = icmp eq ptr %11, null
  %12 = getelementptr inbounds nuw i8, ptr %11, i64 40
  br i1 %.not, label %23, label %13

13:                                               ; preds = %8, %9, %10, %7
  %.014.ph = phi ptr [ @ft_bitmap_glyph_class, %7 ], [ %12, %10 ], [ @ft_svg_glyph_class, %9 ], [ @ft_outline_glyph_class, %8 ]
  %14 = load ptr, ptr %0, align 8, !tbaa !61
  call void @llvm.lifetime.start.p0(i64 4, ptr nonnull %4) #6
  store ptr null, ptr %2, align 8, !tbaa !96
  %15 = load i64, ptr %.014.ph, align 8, !tbaa !98
  %16 = call ptr @ft_mem_alloc(ptr noundef %14, i64 noundef %15, ptr noundef nonnull %4) #6
  %17 = load i32, ptr %4, align 4, !tbaa !38
  %.not.i = icmp eq i32 %17, 0
  br i1 %.not.i, label %18, label %ft_new_glyph.exit

18:                                               ; preds = %13
  store ptr %0, ptr %16, align 8, !tbaa !3
  %19 = getelementptr inbounds nuw i8, ptr %16, i64 8
  store ptr %.014.ph, ptr %19, align 8, !tbaa !95
  %20 = getelementptr inbounds nuw i8, ptr %.014.ph, i64 8
  %21 = load i32, ptr %20, align 8, !tbaa !100
  %22 = getelementptr inbounds nuw i8, ptr %16, i64 16
  store i32 %21, ptr %22, align 8, !tbaa !88
  store ptr %16, ptr %2, align 8, !tbaa !96
  br label %ft_new_glyph.exit

ft_new_glyph.exit:                                ; preds = %13, %18
  call void @llvm.lifetime.end.p0(i64 4, ptr nonnull %4) #6
  br label %23

23:                                               ; preds = %10, %3, %ft_new_glyph.exit
  %.0 = phi i32 [ %17, %ft_new_glyph.exit ], [ 6, %3 ], [ 18, %10 ]
  ret i32 %.0
}